target datalayout = "e-m:e-p270:32:32-p271:32:32-p272:64:64-i64:64-i128:128-f80:128-n8:16:32:64-S128"
target triple = "x86_64-pc-linux-gnu"

%struct.cbs_st = type { ptr, i64 }
%struct.pkcs12_st = type { ptr, i64 }

@.str = private unnamed_addr constant [124 x i8] c"generated/home/dtcxzyw/WorkSpace/Projects/compilers/llvm-opt-benchmark/bench/libquic/libquic/boringssl/crypto/pkcs8/pkcs8.c\00", align 1

; Function Attrs: nounwind uwtable
define hidden i32 @PKCS12_parse(ptr noundef %0, ptr noundef %1, ptr noundef %2, ptr noundef %3, ptr noundef %4) #0 {
  %6 = alloca i32, align 4
  %7 = alloca ptr, align 8
  %8 = alloca ptr, align 8
  %9 = alloca ptr, align 8
  %10 = alloca ptr, align 8
  %11 = alloca ptr, align 8
  %12 = alloca %struct.cbs_st, align 8
  %13 = alloca ptr, align 8
  %14 = alloca i8, align 1
  %15 = alloca i32, align 4
  store ptr %0, ptr %7, align 8, !tbaa !79
  store ptr %1, ptr %8, align 8, !tbaa !11
  store ptr %2, ptr %9, align 8, !tbaa !48
  store ptr %3, ptr %10, align 8, !tbaa !93
  store ptr %4, ptr %11, align 8, !tbaa !95
  call void @llvm.lifetime.start.p0(i64 16, ptr %12) #8
  call void @llvm.lifetime.start.p0(i64 8, ptr %13) #8
  store ptr null, ptr %13, align 8, !tbaa !50
  call void @llvm.lifetime.start.p0(i64 1, ptr %14) #8
  store i8 0, ptr %14, align 1, !tbaa !65
  %16 = load ptr, ptr %11, align 8, !tbaa !95
  %17 = icmp ne ptr %16, null
  br i1 %17, label %18, label %25

18:                                               ; preds = %5
  %19 = load ptr, ptr %11, align 8, !tbaa !95
  %20 = load ptr, ptr %19, align 8, !tbaa !50
  %21 = icmp ne ptr %20, null
  br i1 %21, label %22, label %25

22:                                               ; preds = %18
  %23 = load ptr, ptr %11, align 8, !tbaa !95
  %24 = load ptr, ptr %23, align 8, !tbaa !50
  store ptr %24, ptr %13, align 8, !tbaa !50
  br label %25

25:                                               ; preds = %22, %18, %5
  %26 = load ptr, ptr %13, align 8, !tbaa !50
  %27 = icmp ne ptr %26, null
  br i1 %27, label %34, label %28

28:                                               ; preds = %25
  %29 = call ptr @sk_new_null()
  store ptr %29, ptr %13, align 8, !tbaa !50
  %30 = load ptr, ptr %13, align 8, !tbaa !50
  %31 = icmp eq ptr %30, null
  br i1 %31, label %32, label %33

32:                                               ; preds = %28
  call void @ERR_put_error(i32 noundef 19, i32 noundef 0, i32 noundef 65, ptr noundef @.str, i32 noundef 1162)
  store i32 0, ptr %6, align 4
  store i32 1, ptr %15, align 4
  br label %70

33:                                               ; preds = %28
  store i8 1, ptr %14, align 1, !tbaa !65
  br label %34

34:                                               ; preds = %33, %25
  %35 = load ptr, ptr %7, align 8, !tbaa !79
  %36 = getelementptr inbounds nuw %struct.pkcs12_st, ptr %35, i32 0, i32 0
  %37 = load ptr, ptr %36, align 8, !tbaa !81
  %38 = load ptr, ptr %7, align 8, !tbaa !79
  %39 = getelementptr inbounds nuw %struct.pkcs12_st, ptr %38, i32 0, i32 1
  %40 = load i64, ptr %39, align 8, !tbaa !83
  call void @CBS_init(ptr noundef %12, ptr noundef %37, i64 noundef %40)
  %41 = load ptr, ptr %9, align 8, !tbaa !48
  %42 = load ptr, ptr %13, align 8, !tbaa !50
  %43 = load ptr, ptr %8, align 8, !tbaa !11
  %44 = call i32 @PKCS12_get_key_and_certs(ptr noundef %41, ptr noundef %42, ptr noundef %12, ptr noundef %43)
  %45 = icmp ne i32 %44, 0
  br i1 %45, label %52, label %46

46:                                               ; preds = %34
  %47 = load i8, ptr %14, align 1, !tbaa !65
  %48 = icmp ne i8 %47, 0
  br i1 %48, label %49, label %51

49:                                               ; preds = %46
  %50 = load ptr, ptr %13, align 8, !tbaa !50
  call void @sk_free(ptr noundef %50)
  br label %51

51:                                               ; preds = %49, %46
  store i32 0, ptr %6, align 4
  store i32 1, ptr %15, align 4
  br label %70

52:                                               ; preds = %34
  %53 = load ptr, ptr %10, align 8, !tbaa !93
  store ptr null, ptr %53, align 8, !tbaa !61
  %54 = load ptr, ptr %13, align 8, !tbaa !50
  %55 = call i64 @sk_num(ptr noundef %54)
  %56 = icmp ugt i64 %55, 0
  br i1 %56, label %57, label %61

57:                                               ; preds = %52
  %58 = load ptr, ptr %13, align 8, !tbaa !50
  %59 = call ptr @sk_shift(ptr noundef %58)
  %60 = load ptr, ptr %10, align 8, !tbaa !93
  store ptr %59, ptr %60, align 8, !tbaa !61
  br label %61

61:                                               ; preds = %57, %52
  %62 = load ptr, ptr %11, align 8, !tbaa !95
  %63 = icmp ne ptr %62, null
  br i1 %63, label %64, label %67

64:                                               ; preds = %61
  %65 = load ptr, ptr %13, align 8, !tbaa !50
  %66 = load ptr, ptr %11, align 8, !tbaa !95
  store ptr %65, ptr %66, align 8, !tbaa !50
  br label %69

67:                                               ; preds = %61
  %68 = load ptr, ptr %13, align 8, !tbaa !50
  call void @sk_pop_free(ptr noundef %68, ptr noundef @X509_free)
  br label %69

69:                                               ; preds = %67, %64
  store i32 1, ptr %6, align 4
  store i32 1, ptr %15, align 4
  br label %70

70:                                               ; preds = %69, %51, %32
  call void @llvm.lifetime.end.p0(i64 1, ptr %14) #8
  call void @llvm.lifetime.end.p0(i64 8, ptr %13) #8
  call void @llvm.lifetime.end.p0(i64 16, ptr %12) #8
  %71 = load i32, ptr %6, align 4
  ret i32 %71
}