; Function Attrs: nounwind uwtable
define hidden range(i32 0, 2) i32 @PKCS12_parse(ptr noundef readonly captures(none) %0, ptr noundef captures(address_is_null) %1, ptr noundef %2, ptr noundef writeonly captures(none) %3, ptr noundef captures(address_is_null) %4) local_unnamed_addr #0 {
  %6 = alloca %struct.cbs_st, align 8
  call void @llvm.lifetime.start.p0(i64 16, ptr nonnull %6) #12
  %.not = icmp eq ptr %4, null
  br i1 %.not, label %.thread, label %7

7:                                                ; preds = %5
  %8 = load ptr, ptr %4, align 8, !tbaa !58
  %.not27.not = icmp eq ptr %8, null
  br i1 %.not27.not, label %.thread, label %12

.thread:                                          ; preds = %5, %7
  %9 = tail call ptr @sk_new_null() #12
  %10 = icmp eq ptr %9, null
  br i1 %10, label %11, label %12

11:                                               ; preds = %.thread
  tail call void @ERR_put_error(i32 noundef 19, i32 noundef 0, i32 noundef 65, ptr noundef nonnull @.str, i32 noundef 1162) #12
  br label %26

12:                                               ; preds = %.thread, %7
  %.not27.not33 = phi i1 [ false, %7 ], [ true, %.thread ]
  %.1 = phi ptr [ %8, %7 ], [ %9, %.thread ]
  %13 = load ptr, ptr %0, align 8, !tbaa !50
  %14 = getelementptr inbounds nuw i8, ptr %0, i64 8
  %15 = load i64, ptr %14, align 8, !tbaa !52
  call void @CBS_init(ptr noundef nonnull %6, ptr noundef %13, i64 noundef %15) #12
  %16 = call i32 @PKCS12_get_key_and_certs(ptr noundef %2, ptr noundef nonnull %.1, ptr noundef nonnull %6, ptr noundef %1)
  %.not28 = icmp eq i32 %16, 0
  br i1 %.not28, label %17, label %19

17:                                               ; preds = %12
  br i1 %.not27.not33, label %18, label %26

18:                                               ; preds = %17
  call void @sk_free(ptr noundef nonnull %.1) #12
  br label %26

19:                                               ; preds = %12
  store ptr null, ptr %3, align 8, !tbaa !59
  %20 = call i64 @sk_num(ptr noundef nonnull %.1) #12
  %.not30 = icmp eq i64 %20, 0
  br i1 %.not30, label %23, label %21

21:                                               ; preds = %19
  %22 = call ptr @sk_shift(ptr noundef nonnull %.1) #12
  store ptr %22, ptr %3, align 8, !tbaa !59
  br label %23

23:                                               ; preds = %21, %19
  br i1 %.not, label %25, label %24

24:                                               ; preds = %23
  store ptr %.1, ptr %4, align 8, !tbaa !58
  br label %26

25:                                               ; preds = %23
  call void @sk_pop_free(ptr noundef nonnull %.1, ptr noundef nonnull @X509_free) #12
  br label %26

26:                                               ; preds = %24, %25, %17, %18, %11
  %.021 = phi i32 [ 0, %11 ], [ 0, %18 ], [ 0, %17 ], [ 1, %25 ], [ 1, %24 ]
  call void @llvm.lifetime.end.p0(i64 16, ptr nonnull %6) #12
  ret i32 %.021
}